target datalayout = "e-m:e-p270:32:32-p271:32:32-p272:64:64-i64:64-i128:128-f80:128-n8:16:32:64-S128"
target triple = "x86_64-pc-linux-gnu"

; Function Attrs: nounwind uwtable
define internal i32 @rsa_has(ptr noundef %0, i32 noundef %1) #0 {
  %3 = alloca i32, align 4
  %4 = alloca ptr, align 8
  %5 = alloca i32, align 4
  %6 = alloca ptr, align 8
  %7 = alloca i32, align 4
  %8 = alloca i32, align 4
  store ptr %0, ptr %4, align 8, !tbaa !3
  store i32 %1, ptr %5, align 4, !tbaa !11
  call void @llvm.lifetime.start.p0(i64 8, ptr %6) #6
  %9 = load ptr, ptr %4, align 8, !tbaa !3
  store ptr %9, ptr %6, align 8, !tbaa !9
  call void @llvm.lifetime.start.p0(i64 4, ptr %7) #6
  store i32 1, ptr %7, align 4, !tbaa !11
  %10 = load ptr, ptr %6, align 8, !tbaa !9
  %11 = icmp eq ptr %10, null
  br i1 %11, label %15, label %12

12:                                               ; preds = %2
  %13 = call i32 @ossl_prov_is_running()
  %14 = icmp ne i32 %13, 0
  br i1 %14, label %16, label %15

15:                                               ; preds = %12, %2
  store i32 0, ptr %3, align 4
  store i32 1, ptr %8, align 4
  br label %65

16:                                               ; preds = %12
  %17 = load i32, ptr %5, align 4, !tbaa !11
  %18 = and i32 %17, 131
  %19 = icmp eq i32 %18, 0
  br i1 %19, label %20, label %21

20:                                               ; preds = %16
  store i32 1, ptr %3, align 4
  store i32 1, ptr %8, align 4
  br label %65

21:                                               ; preds = %16
  %22 = load i32, ptr %5, align 4, !tbaa !11
  %23 = and i32 %22, 3
  %24 = icmp ne i32 %23, 0
  br i1 %24, label %25, label %35

25:                                               ; preds = %21
  %26 = load i32, ptr %7, align 4, !tbaa !11
  %27 = icmp ne i32 %26, 0
  br i1 %27, label %28, label %32

28:                                               ; preds = %25
  %29 = load ptr, ptr %6, align 8, !tbaa !9
  %30 = call ptr @RSA_get0_n(ptr noundef %29)
  %31 = icmp ne ptr %30, null
  br label %32

32:                                               ; preds = %28, %25
  %33 = phi i1 [ false, %25 ], [ %31, %28 ]
  %34 = zext i1 %33 to i32
  store i32 %34, ptr %7, align 4, !tbaa !11
  br label %35

35:                                               ; preds = %32, %21
  %36 = load i32, ptr %5, align 4, !tbaa !11
  %37 = and i32 %36, 2
  %38 = icmp ne i32 %37, 0
  br i1 %38, label %39, label %49

39:                                               ; preds = %35
  %40 = load i32, ptr %7, align 4, !tbaa !11
  %41 = icmp ne i32 %40, 0
  br i1 %41, label %42, label %46

42:                                               ; preds = %39
  %43 = load ptr, ptr %6, align 8, !tbaa !9
  %44 = call ptr @RSA_get0_e(ptr noundef %43)
  %45 = icmp ne ptr %44, null
  br label %46

46:                                               ; preds = %42, %39
  %47 = phi i1 [ false, %39 ], [ %45, %42 ]
  %48 = zext i1 %47 to i32
  store i32 %48, ptr %7, align 4, !tbaa !11
  br label %49

49:                                               ; preds = %46, %35
  %50 = load i32, ptr %5, align 4, !tbaa !11
  %51 = and i32 %50, 1
  %52 = icmp ne i32 %51, 0
  br i1 %52, label %53, label %63

53:                                               ; preds = %49
  %54 = load i32, ptr %7, align 4, !tbaa !11
  %55 = icmp ne i32 %54, 0
  br i1 %55, label %56, label %60

56:                                               ; preds = %53
  %57 = load ptr, ptr %6, align 8, !tbaa !9
  %58 = call ptr @RSA_get0_d(ptr noundef %57)
  %59 = icmp ne ptr %58, null
  br label %60

60:                                               ; preds = %56, %53
  %61 = phi i1 [ false, %53 ], [ %59, %56 ]
  %62 = zext i1 %61 to i32
  store i32 %62, ptr %7, align 4, !tbaa !11
  br label %63

63:                                               ; preds = %60, %49
  %64 = load i32, ptr %7, align 4, !tbaa !11
  store i32 %64, ptr %3, align 4
  store i32 1, ptr %8, align 4
  br label %65

65:                                               ; preds = %63, %20, %15
  call void @llvm.lifetime.end.p0(i64 4, ptr %7) #6
  call void @llvm.lifetime.end.p0(i64 8, ptr %6) #6
  %66 = load i32, ptr %3, align 4
  ret i32 %66
}