; Function Attrs: nounwind uwtable
define internal range(i32 0, 2) i32 @rsa_has(ptr noundef %0, i32 noundef %1) #0 {
  %3 = icmp eq ptr %0, null
  br i1 %3, label %.thread26, label %4

4:                                                ; preds = %2
  %5 = tail call i32 @ossl_prov_is_running() #6
  %.not = icmp eq i32 %5, 0
  br i1 %.not, label %.thread26, label %6

6:                                                ; preds = %4
  %7 = and i32 %1, 3
  %.not15 = icmp eq i32 %7, 0
  br i1 %.not15, label %.thread26, label %8

8:                                                ; preds = %6
  %9 = tail call ptr @RSA_get0_n(ptr noundef nonnull %0) #6
  %10 = icmp ne ptr %9, null
  %11 = and i32 %1, 2
  %.not16 = icmp eq i32 %11, 0
  %.not33 = xor i1 %10, true
  %brmerge = select i1 %.not16, i1 true, i1 %.not33
  %.mux = select i1 %.not16, i1 %10, i1 false
  br i1 %brmerge, label %14, label %.thread23

.thread23:                                        ; preds = %8
  %12 = tail call ptr @RSA_get0_e(ptr noundef nonnull %0) #6
  %13 = icmp ne ptr %12, null
  br label %14

14:                                               ; preds = %8, %.thread23
  %.1.shrunk = phi i1 [ %.mux, %8 ], [ %13, %.thread23 ]
  %15 = and i32 %1, 1
  %.not18 = icmp eq i32 %15, 0
  %.1.shrunk.not = xor i1 %.1.shrunk, true
  %brmerge34 = select i1 %.not18, i1 true, i1 %.1.shrunk.not
  %.1.shrunk.mux = select i1 %.not18, i1 %.1.shrunk, i1 false
  br i1 %brmerge34, label %.thread26, label %.thread30

.thread30:                                        ; preds = %14
  %16 = tail call ptr @RSA_get0_d(ptr noundef nonnull %0) #6
  %17 = icmp ne ptr %16, null
  br label %.thread26

.thread26:                                        ; preds = %14, %.thread30, %6, %2, %4
  %.013.shrunk = phi i1 [ false, %4 ], [ false, %2 ], [ true, %6 ], [ %.1.shrunk.mux, %14 ], [ %17, %.thread30 ]
  %.013 = zext i1 %.013.shrunk to i32
  ret i32 %.013
}